target datalayout = "e-m:e-p270:32:32-p271:32:32-p272:64:64-i64:64-i128:128-f80:128-n8:16:32:64-S128"
target triple = "x86_64-pc-linux-gnu"

%struct.TabList = type { [32 x %struct.Tab], i32, i32, i32 }
%struct.Tab = type { ptr, i64 }
%struct.VVCFrameContext = type { ptr, [17 x %struct.VVCFrame], ptr, ptr, %struct.VVCFrameParamSets, ptr, i32, i32, ptr, %struct.VVCDSPContext, %struct.VideoDSPContext, ptr, i64, ptr, ptr, ptr, ptr, %struct.anon }
%struct.VVCFrame = type { ptr, ptr, ptr, ptr, ptr, ptr, i32, i32, i32, %struct.VVCWindow, i32, i32, ptr, ptr, i16, i8, ptr }
%struct.VVCWindow = type { i16, i16, i16, i16 }
%struct.VVCFrameParamSets = type { ptr, ptr, %struct.VVCPH, [8 x ptr], %struct.VVCLMCS, ptr }
%struct.VVCPH = type { ptr, ptr, i32, i32, i8, [3 x i16], i8, [3 x i16], %struct.PredWeightTable }
%struct.PredWeightTable = type { [2 x i8], [2 x i8], [2 x [2 x [15 x i8]]], [2 x [3 x [15 x i16]]], [2 x [3 x [15 x i16]]] }
%struct.VVCLMCS = type { i8, i8, %union.anon.0, %union.anon.0, [17 x i16], [16 x i16] }
%union.anon.0 = type { [4096 x i16] }
%struct.VVCDSPContext = type { %struct.VVCInterDSPContext, %struct.VVCIntraDSPContext, %struct.VVCItxDSPContext, %struct.VVCLMCSDSPContext, %struct.VVCLFDSPContext, %struct.VVCSAODSPContext, %struct.VVCALFDSPContext }
%struct.VVCInterDSPContext = type { [2 x [7 x [2 x [2 x ptr]]]], [2 x [7 x [2 x [2 x ptr]]]], [2 x [7 x [2 x [2 x ptr]]]], [2 x [7 x ptr]], [2 x [7 x ptr]], [2 x [7 x ptr]], ptr, ptr, ptr, ptr, ptr, ptr, ptr, ptr, ptr, ptr, ptr, [2 x [2 x ptr]] }
%struct.VVCIntraDSPContext = type { ptr, ptr, ptr, ptr, ptr, ptr, ptr, ptr, ptr, ptr }
%struct.VVCItxDSPContext = type { ptr, ptr, [3 x [6 x ptr]], ptr, ptr }
%struct.VVCLMCSDSPContext = type { ptr }
%struct.VVCLFDSPContext = type { [2 x ptr], [2 x ptr], [2 x ptr] }
%struct.VVCSAODSPContext = type { [9 x ptr], [9 x ptr], [2 x ptr] }
%struct.VVCALFDSPContext = type { [2 x ptr], ptr, ptr, ptr }
%struct.VideoDSPContext = type { ptr, ptr }
%struct.anon = type { ptr, ptr, ptr, ptr, [2 x ptr], [2 x ptr], [2 x ptr], [2 x ptr], [2 x ptr], [3 x ptr], ptr, ptr, [2 x ptr], ptr, ptr, [2 x ptr], ptr, ptr, ptr, [2 x ptr], ptr, [3 x ptr], ptr, [2 x ptr], [2 x ptr], [2 x ptr], [2 x [3 x ptr]], [2 x ptr], [2 x ptr], [3 x ptr], [3 x ptr], [3 x [2 x ptr]], [3 x [2 x ptr]], ptr, ptr, ptr, [3 x ptr], %struct.anon.1 }
%struct.anon.1 = type { i32, i32, i32, i32, i32, i32, i32, i32, i32, i32, i32, i32 }
%struct.VVCPPS = type { ptr, [3 x i8], [6 x [3 x i8]], i16, i16, [1000 x i16], [1000 x i16], i16, i16, i16, i16, i32, i16, i16, i16, i16, ptr, ptr, ptr, ptr, ptr, i16, i16, i16, i16, i16, [1000 x i16], [1000 x i16], [1000 x i16], [1000 x i16] }

@.str.2 = private unnamed_addr constant [30 x i8] c"Assertion %s failed at %s:%d\0A\00", align 1
@.str.3 = private unnamed_addr constant [16 x i8] c"l->nb_tabs < 32\00", align 1
@.str.4 = private unnamed_addr constant [21 x i8] c"libavcodec/vvc/dec.c\00", align 1

; Function Attrs: nounwind uwtable
define internal void @tl_init(ptr noundef %0, i32 noundef %1, i32 noundef %2) #0 {
  %4 = alloca ptr, align 8
  %5 = alloca i32, align 4
  %6 = alloca i32, align 4
  store ptr %0, ptr %4, align 8, !tbaa !14
  store i32 %1, ptr %5, align 4, !tbaa !10
  store i32 %2, ptr %6, align 4, !tbaa !10
  %7 = load ptr, ptr %4, align 8, !tbaa !14
  %8 = getelementptr inbounds nuw %struct.TabList, ptr %7, i32 0, i32 1
  store i32 0, ptr %8, align 8, !tbaa !18
  %9 = load i32, ptr %5, align 4, !tbaa !10
  %10 = load ptr, ptr %4, align 8, !tbaa !14
  %11 = getelementptr inbounds nuw %struct.TabList, ptr %10, i32 0, i32 2
  store i32 %9, ptr %11, align 4, !tbaa !16
  %12 = load i32, ptr %6, align 4, !tbaa !10
  %13 = load ptr, ptr %4, align 8, !tbaa !14
  %14 = getelementptr inbounds nuw %struct.TabList, ptr %13, i32 0, i32 3
  store i32 %12, ptr %14, align 8, !tbaa !173
  ret void
}

; Function Attrs: nounwind uwtable
define internal void @msm_tl_init(ptr noundef %0, ptr noundef %1) #0 {
  %3 = alloca ptr, align 8
  %4 = alloca ptr, align 8
  %5 = alloca ptr, align 8
  %6 = alloca i32, align 4
  %7 = alloca i32, align 4
  %8 = alloca i32, align 4
  %9 = alloca i32, align 4
  store ptr %0, ptr %3, align 8, !tbaa !14
  store ptr %1, ptr %4, align 8, !tbaa !4
  call void @llvm.lifetime.start.p0(i64 8, ptr %5) #9
  %10 = load ptr, ptr %4, align 8, !tbaa !4
  %11 = getelementptr inbounds nuw %struct.VVCFrameContext, ptr %10, i32 0, i32 4
  %12 = getelementptr inbounds nuw %struct.VVCFrameParamSets, ptr %11, i32 0, i32 1
  %13 = load ptr, ptr %12, align 8, !tbaa !115
  store ptr %13, ptr %5, align 8, !tbaa !116
  call void @llvm.lifetime.start.p0(i64 4, ptr %6) #9
  %14 = load ptr, ptr %5, align 8, !tbaa !116
  %15 = icmp ne ptr %14, null
  br i1 %15, label %16, label %24

16:                                               ; preds = %2
  %17 = load ptr, ptr %5, align 8, !tbaa !116
  %18 = getelementptr inbounds nuw %struct.VVCPPS, ptr %17, i32 0, i32 3
  %19 = load i16, ptr %18, align 2, !tbaa !141
  %20 = zext i16 %19 to i32
  %21 = add nsw i32 %20, 32
  %22 = sub nsw i32 %21, 1
  %23 = ashr i32 %22, 5
  br label %25

24:                                               ; preds = %2
  br label %25

25:                                               ; preds = %24, %16
  %26 = phi i32 [ %23, %16 ], [ 0, %24 ]
  store i32 %26, ptr %6, align 4, !tbaa !10
  call void @llvm.lifetime.start.p0(i64 4, ptr %7) #9
  %27 = load ptr, ptr %5, align 8, !tbaa !116
  %28 = icmp ne ptr %27, null
  br i1 %28, label %29, label %37

29:                                               ; preds = %25
  %30 = load ptr, ptr %5, align 8, !tbaa !116
  %31 = getelementptr inbounds nuw %struct.VVCPPS, ptr %30, i32 0, i32 4
  %32 = load i16, ptr %31, align 8, !tbaa !142
  %33 = zext i16 %32 to i32
  %34 = add nsw i32 %33, 32
  %35 = sub nsw i32 %34, 1
  %36 = ashr i32 %35, 5
  br label %38

37:                                               ; preds = %25
  br label %38

38:                                               ; preds = %37, %29
  %39 = phi i32 [ %36, %29 ], [ 0, %37 ]
  store i32 %39, ptr %7, align 4, !tbaa !10
  call void @llvm.lifetime.start.p0(i64 4, ptr %8) #9
  %40 = load ptr, ptr %4, align 8, !tbaa !4
  %41 = getelementptr inbounds nuw %struct.VVCFrameContext, ptr %40, i32 0, i32 17
  %42 = getelementptr inbounds nuw %struct.anon, ptr %41, i32 0, i32 37
  %43 = getelementptr inbounds nuw %struct.anon.1, ptr %42, i32 0, i32 7
  %44 = load i32, ptr %43, align 4, !tbaa !159
  %45 = add nsw i32 %44, 32
  %46 = sub nsw i32 %45, 1
  %47 = ashr i32 %46, 5
  %48 = load i32, ptr %6, align 4, !tbaa !10
  %49 = icmp ne i32 %47, %48
  br i1 %49, label %61, label %50

50:                                               ; preds = %38
  %51 = load ptr, ptr %4, align 8, !tbaa !4
  %52 = getelementptr inbounds nuw %struct.VVCFrameContext, ptr %51, i32 0, i32 17
  %53 = getelementptr inbounds nuw %struct.anon, ptr %52, i32 0, i32 37
  %54 = getelementptr inbounds nuw %struct.anon.1, ptr %53, i32 0, i32 8
  %55 = load i32, ptr %54, align 8, !tbaa !160
  %56 = add nsw i32 %55, 32
  %57 = sub nsw i32 %56, 1
  %58 = ashr i32 %57, 5
  %59 = load i32, ptr %7, align 4, !tbaa !10
  %60 = icmp ne i32 %58, %59
  br label %61

61:                                               ; preds = %50, %38
  %62 = phi i1 [ true, %38 ], [ %60, %50 ]
  %63 = zext i1 %62 to i32
  store i32 %63, ptr %8, align 4, !tbaa !10
  %64 = load ptr, ptr %3, align 8, !tbaa !14
  %65 = load i32, ptr %8, align 4, !tbaa !10
  call void @tl_init(ptr noundef %64, i32 noundef 1, i32 noundef %65)
  call void @llvm.lifetime.start.p0(i64 4, ptr %9) #9
  store i32 0, ptr %9, align 4, !tbaa !10
  br label %66

66:                                               ; preds = %114, %61
  %67 = load i32, ptr %9, align 4, !tbaa !10
  %68 = icmp sle i32 %67, 1
  br i1 %68, label %70, label %69

69:                                               ; preds = %66
  call void @llvm.lifetime.end.p0(i64 4, ptr %9) #9
  br label %117

70:                                               ; preds = %66
  br label %71

71:                                               ; preds = %70
  br label %72

72:                                               ; preds = %71
  %73 = load ptr, ptr %3, align 8, !tbaa !14
  %74 = getelementptr inbounds nuw %struct.TabList, ptr %73, i32 0, i32 1
  %75 = load i32, ptr %74, align 8, !tbaa !18
  %76 = icmp slt i32 %75, 32
  br i1 %76, label %78, label %77

77:                                               ; preds = %72
  call void (ptr, i32, ptr, ...) @av_log(ptr noundef null, i32 noundef 0, ptr noundef @.str.2, ptr noundef @.str.3, ptr noundef @.str.4, i32 noundef 272)
  call void @abort() #11
  unreachable

78:                                               ; preds = %72
  br label %79

79:                                               ; preds = %78
  br label %80

80:                                               ; preds = %79
  %81 = load ptr, ptr %4, align 8, !tbaa !4
  %82 = getelementptr inbounds nuw %struct.VVCFrameContext, ptr %81, i32 0, i32 17
  %83 = getelementptr inbounds nuw %struct.anon, ptr %82, i32 0, i32 12
  %84 = load i32, ptr %9, align 4, !tbaa !10
  %85 = sext i32 %84 to i64
  %86 = getelementptr inbounds [2 x ptr], ptr %83, i64 0, i64 %85
  %87 = load ptr, ptr %3, align 8, !tbaa !14
  %88 = getelementptr inbounds nuw %struct.TabList, ptr %87, i32 0, i32 0
  %89 = load ptr, ptr %3, align 8, !tbaa !14
  %90 = getelementptr inbounds nuw %struct.TabList, ptr %89, i32 0, i32 1
  %91 = load i32, ptr %90, align 8, !tbaa !18
  %92 = sext i32 %91 to i64
  %93 = getelementptr inbounds [32 x %struct.Tab], ptr %88, i64 0, i64 %92
  %94 = getelementptr inbounds nuw %struct.Tab, ptr %93, i32 0, i32 0
  store ptr %86, ptr %94, align 8, !tbaa !21
  %95 = load i32, ptr %6, align 4, !tbaa !10
  %96 = load i32, ptr %7, align 4, !tbaa !10
  %97 = mul nsw i32 %95, %96
  %98 = sext i32 %97 to i64
  %99 = mul i64 1, %98
  %100 = load ptr, ptr %3, align 8, !tbaa !14
  %101 = getelementptr inbounds nuw %struct.TabList, ptr %100, i32 0, i32 0
  %102 = load ptr, ptr %3, align 8, !tbaa !14
  %103 = getelementptr inbounds nuw %struct.TabList, ptr %102, i32 0, i32 1
  %104 = load i32, ptr %103, align 8, !tbaa !18
  %105 = sext i32 %104 to i64
  %106 = getelementptr inbounds [32 x %struct.Tab], ptr %101, i64 0, i64 %105
  %107 = getelementptr inbounds nuw %struct.Tab, ptr %106, i32 0, i32 1
  store i64 %99, ptr %107, align 8, !tbaa !25
  %108 = load ptr, ptr %3, align 8, !tbaa !14
  %109 = getelementptr inbounds nuw %struct.TabList, ptr %108, i32 0, i32 1
  %110 = load i32, ptr %109, align 8, !tbaa !18
  %111 = add nsw i32 %110, 1
  store i32 %111, ptr %109, align 8, !tbaa !18
  br label %112

112:                                              ; preds = %80
  br label %113

113:                                              ; preds = %112
  br label %114

114:                                              ; preds = %113
  %115 = load i32, ptr %9, align 4, !tbaa !10
  %116 = add nsw i32 %115, 1
  store i32 %116, ptr %9, align 4, !tbaa !10
  br label %66, !llvm.loop !168

117:                                              ; preds = %69
  call void @llvm.lifetime.end.p0(i64 4, ptr %8) #9
  call void @llvm.lifetime.end.p0(i64 4, ptr %7) #9
  call void @llvm.lifetime.end.p0(i64 4, ptr %6) #9
  call void @llvm.lifetime.end.p0(i64 8, ptr %5) #9
  ret void
}