; Function Attrs: nofree norecurse nosync nounwind memory(read, argmem: readwrite, inaccessiblemem: none) uwtable
define internal void @msm_tl_init(ptr noundef writeonly captures(none) initializes((516, 524)) %0, ptr noundef %1) #4 {
  %3 = getelementptr inbounds nuw i8, ptr %1, i64 1936
  %4 = load ptr, ptr %3, align 8, !tbaa !158
  %.not = icmp eq ptr %4, null
  br i1 %.not, label %.thread, label %5

5:                                                ; preds = %2
  %6 = getelementptr inbounds nuw i8, ptr %4, i64 30
  %7 = load i16, ptr %6, align 2, !tbaa !184
  %8 = zext i16 %7 to i32
  %9 = add nuw nsw i32 %8, 31
  %10 = lshr i32 %9, 5
  %11 = getelementptr inbounds nuw i8, ptr %4, i64 32
  %12 = load i16, ptr %11, align 8, !tbaa !186
  %13 = zext i16 %12 to i32
  %14 = add nuw nsw i32 %13, 31
  %15 = lshr i32 %14, 5
  br label %.thread

.thread:                                          ; preds = %2, %5
  %16 = phi i32 [ %10, %5 ], [ 0, %2 ]
  %17 = phi i32 [ %15, %5 ], [ 0, %2 ]
  %18 = getelementptr inbounds nuw i8, ptr %1, i64 21964
  %19 = load i32, ptr %18, align 4, !tbaa !185
  %20 = add nsw i32 %19, 31
  %21 = ashr i32 %20, 5
  %.not24 = icmp eq i32 %21, %16
  br i1 %.not24, label %22, label %29

22:                                               ; preds = %.thread
  %23 = getelementptr inbounds nuw i8, ptr %1, i64 21968
  %24 = load i32, ptr %23, align 8, !tbaa !187
  %25 = add nsw i32 %24, 31
  %26 = ashr i32 %25, 5
  %27 = icmp ne i32 %26, %17
  %28 = zext i1 %27 to i32
  br label %29

29:                                               ; preds = %22, %.thread
  %30 = phi i32 [ 1, %.thread ], [ %28, %22 ]
  %31 = getelementptr inbounds nuw i8, ptr %0, i64 516
  store i32 1, ptr %31, align 4, !tbaa !10
  %32 = getelementptr inbounds nuw i8, ptr %0, i64 520
  store i32 %30, ptr %32, align 8, !tbaa !167
  %33 = getelementptr inbounds nuw i8, ptr %1, i64 21488
  %34 = mul nuw nsw i32 %17, %16
  %35 = zext nneg i32 %34 to i64
  br label %40

36:                                               ; preds = %40
  %37 = trunc nuw nsw i64 %indvars.iv to i32
  %38 = add nuw nsw i32 %37, 1
  %39 = getelementptr inbounds nuw i8, ptr %0, i64 512
  store i32 %38, ptr %39, align 8, !tbaa !18
  ret void

40:                                               ; preds = %40, %29
  %41 = phi i1 [ true, %29 ], [ false, %40 ]
  %indvars.iv = phi i64 [ 0, %29 ], [ 1, %40 ]
  %42 = getelementptr inbounds nuw [2 x ptr], ptr %33, i64 0, i64 %indvars.iv
  %43 = getelementptr inbounds nuw [32 x %struct.Tab], ptr %0, i64 0, i64 %indvars.iv
  store ptr %42, ptr %43, align 8, !tbaa !13
  %44 = getelementptr inbounds nuw [32 x %struct.Tab], ptr %0, i64 0, i64 %indvars.iv, i32 1
  store i64 %35, ptr %44, align 8, !tbaa !17
  br i1 %41, label %40, label %36, !llvm.loop !284
}